; Function Attrs: mustprogress uwtable
define hidden noundef zeroext i1 @_ZNK19OpenColorIO_v2_5dev19FixedFunctionOpData6equalsERKNS_6OpDataE(ptr noundef nonnull align 8 dereferenceable(200) %0, ptr noundef nonnull align 8 dereferenceable(168) %1) unnamed_addr #0 align 2 {
  %3 = tail call noundef zeroext i1 @_ZNK19OpenColorIO_v2_5dev6OpData6equalsERKS0_(ptr noundef nonnull align 8 dereferenceable(168) %0, ptr noundef nonnull align 8 dereferenceable(168) %1)
  br i1 %3, label %4, label %_ZSteqIdSaIdEEbRKSt6vectorIT_T0_ES6_.exit

4:                                                ; preds = %2
  %5 = getelementptr inbounds nuw i8, ptr %0, i64 168
  %6 = load i32, ptr %5, align 8, !tbaa !15
  %7 = getelementptr inbounds nuw i8, ptr %1, i64 168
  %8 = load i32, ptr %7, align 8, !tbaa !15
  %9 = icmp eq i32 %6, %8
  br i1 %9, label %10, label %_ZSteqIdSaIdEEbRKSt6vectorIT_T0_ES6_.exit

10:                                               ; preds = %4
  %11 = getelementptr inbounds nuw i8, ptr %0, i64 176
  %12 = getelementptr inbounds nuw i8, ptr %1, i64 176
  %13 = getelementptr inbounds nuw i8, ptr %0, i64 184
  %14 = load ptr, ptr %13, align 8, !tbaa !40
  %15 = load ptr, ptr %11, align 8, !tbaa !38
  %16 = ptrtoint ptr %14 to i64
  %17 = ptrtoint ptr %15 to i64
  %18 = sub i64 %16, %17
  %19 = getelementptr inbounds nuw i8, ptr %1, i64 184
  %20 = load ptr, ptr %19, align 8, !tbaa !40
  %21 = load ptr, ptr %12, align 8, !tbaa !38
  %22 = ptrtoint ptr %20 to i64
  %23 = ptrtoint ptr %21 to i64
  %24 = sub i64 %22, %23
  %25 = icmp eq i64 %18, %24
  br i1 %25, label %26, label %_ZSteqIdSaIdEEbRKSt6vectorIT_T0_ES6_.exit

26:                                               ; preds = %10
  %.not9.i.i.i.i.i = icmp eq ptr %15, %14
  br i1 %.not9.i.i.i.i.i, label %_ZSteqIdSaIdEEbRKSt6vectorIT_T0_ES6_.exit, label %.lr.ph.i.i.i.i.i

.lr.ph.i.i.i.i.i:                                 ; preds = %26, %.lr.ph.i.i.i.i.i
  %.011.i.i.i.i.i = phi ptr [ %31, %.lr.ph.i.i.i.i.i ], [ %21, %26 ]
  %.0810.i.i.i.i.i = phi ptr [ %30, %.lr.ph.i.i.i.i.i ], [ %15, %26 ]
  %27 = load double, ptr %.0810.i.i.i.i.i, align 8, !tbaa !58
  %28 = load double, ptr %.011.i.i.i.i.i, align 8, !tbaa !58
  %29 = fcmp oeq double %27, %28
  %30 = getelementptr inbounds nuw i8, ptr %.0810.i.i.i.i.i, i64 8
  %31 = getelementptr inbounds nuw i8, ptr %.011.i.i.i.i.i, i64 8
  %.not.i.i.i.i.i = icmp ne ptr %30, %14
  %or.cond.not = select i1 %29, i1 %.not.i.i.i.i.i, i1 false
  br i1 %or.cond.not, label %.lr.ph.i.i.i.i.i, label %_ZSteqIdSaIdEEbRKSt6vectorIT_T0_ES6_.exit, !llvm.loop !70

_ZSteqIdSaIdEEbRKSt6vectorIT_T0_ES6_.exit:        ; preds = %.lr.ph.i.i.i.i.i, %26, %10, %4, %2
  %.0 = phi i1 [ false, %2 ], [ false, %4 ], [ false, %10 ], [ true, %26 ], [ %29, %.lr.ph.i.i.i.i.i ]
  ret i1 %.0
}